(dp0
S'STE'
p1
(lp2
sS'CMGC'
p3
(lp4
(cnumpy.core.multiarray
scalar
p5
(cnumpy
dtype
p6
(S'S18'
p7
I0
I1
tp8
Rp9
(I3
S'|'
p10
NNNI18
I1
I0
tp11
bS'dist_155_CA_227_CA'
p12
tp13
Rp14
I2000
tp15
a(g5
(g6
(S'S17'
p16
I0
I1
tp17
Rp18
(I3
S'|'
p19
NNNI17
I1
I0
tp20
bS'dist_39_CA_139_CA'
p21
tp22
Rp23
I2000
tp24
a(g5
(g6
(S'S17'
p25
I0
I1
tp26
Rp27
(I3
S'|'
p28
NNNI17
I1
I0
tp29
bS'dist_45_CA_138_CA'
p30
tp31
Rp32
I1963
tp33
a(g5
(g6
(S'S18'
p34
I0
I1
tp35
Rp36
(I3
S'|'
p37
NNNI18
I1
I0
tp38
bS'dist_155_CA_170_CA'
p39
tp40
Rp41
I1872
tp42
a(g5
(g6
(S'S18'
p43
I0
I1
tp44
Rp45
(I3
S'|'
p46
NNNI18
I1
I0
tp47
bS'dist_152_CA_164_CA'
p48
tp49
Rp50
I1026
tp51
a(g5
(g6
(S'S17'
p52
I0
I1
tp53
Rp54
(I3
S'|'
p55
NNNI17
I1
I0
tp56
bS'dist_43_CA_138_CA'
p57
tp58
Rp59
I999
tp60
a(g5
(g6
(S'S18'
p61
I0
I1
tp62
Rp63
(I3
S'|'
p64
NNNI18
I1
I0
tp65
bS'dist_139_CA_212_CA'
p66
tp67
Rp68
I991
tp69
a(g5
(g6
(S'S18'
p70
I0
I1
tp71
Rp72
(I3
S'|'
p73
NNNI18
I1
I0
tp74
bS'dist_155_CA_171_CA'
p75
tp76
Rp77
I950
tp78
a(g5
(g6
(S'S18'
p79
I0
I1
tp80
Rp81
(I3
S'|'
p82
NNNI18
I1
I0
tp83
bS'dist_155_CA_226_CA'
p84
tp85
Rp86
I911
tp87
a(g5
(g6
(S'S18'
p88
I0
I1
tp89
Rp90
(I3
S'|'
p91
NNNI18
I1
I0
tp92
bS'dist_155_CA_164_CA'
p93
tp94
Rp95
I880
tp96
a(g5
(g6
(S'S18'
p97
I0
I1
tp98
Rp99
(I3
S'|'
p100
NNNI18
I1
I0
tp101
bS'dist_154_CA_233_CA'
p102
tp103
Rp104
I823
tp105
a(g5
(g6
(S'S18'
p106
I0
I1
tp107
Rp108
(I3
S'|'
p109
NNNI18
I1
I0
tp110
bS'dist_129_CA_149_CA'
p111
tp112
Rp113
I763
tp114
a(g5
(g6
(S'S18'
p115
I0
I1
tp116
Rp117
(I3
S'|'
p118
NNNI18
I1
I0
tp119
bS'dist_155_CA_163_CA'
p120
tp121
Rp122
I703
tp123
a(g5
(g6
(S'S18'
p124
I0
I1
tp125
Rp126
(I3
S'|'
p127
NNNI18
I1
I0
tp128
bS'dist_139_CA_216_CA'
p129
tp130
Rp131
I671
tp132
a(g5
(g6
(S'S18'
p133
I0
I1
tp134
Rp135
(I3
S'|'
p136
NNNI18
I1
I0
tp137
bS'dist_139_CA_214_CA'
p138
tp139
Rp140
I279
tp141
a(g5
(g6
(S'S18'
p142
I0
I1
tp143
Rp144
(I3
S'|'
p145
NNNI18
I1
I0
tp146
bS'dist_139_CA_217_CA'
p147
tp148
Rp149
I128
tp150
a(g5
(g6
(S'S18'
p151
I0
I1
tp152
Rp153
(I3
S'|'
p154
NNNI18
I1
I0
tp155
bS'dist_154_CA_227_CA'
p156
tp157
Rp158
I103
tp159
a(g5
(g6
(S'S18'
p160
I0
I1
tp161
Rp162
(I3
S'|'
p163
NNNI18
I1
I0
tp164
bS'dist_139_CA_213_CA'
p165
tp166
Rp167
I26
tp168
a(g5
(g6
(S'S17'
p169
I0
I1
tp170
Rp171
(I3
S'|'
p172
NNNI17
I1
I0
tp173
bS'dist_45_CA_179_CA'
p174
tp175
Rp176
I19
tp177
a(g5
(g6
(S'S18'
p178
I0
I1
tp179
Rp180
(I3
S'|'
p181
NNNI18
I1
I0
tp182
bS'dist_154_CA_172_CA'
p183
tp184
Rp185
I9
tp186
a(g5
(g6
(S'S18'
p187
I0
I1
tp188
Rp189
(I3
S'|'
p190
NNNI18
I1
I0
tp191
bS'dist_154_CA_226_CA'
p192
tp193
Rp194
I6
tp195
a(g5
(g6
(S'S18'
p196
I0
I1
tp197
Rp198
(I3
S'|'
p199
NNNI18
I1
I0
tp200
bS'dist_155_CA_172_CA'
p201
tp202
Rp203
I6
tp204
a(g5
(g6
(S'S18'
p205
I0
I1
tp206
Rp207
(I3
S'|'
p208
NNNI18
I1
I0
tp209
bS'dist_113_CA_155_CA'
p210
tp211
Rp212
I1
tp213
a(g5
(g6
(S'S16'
p214
I0
I1
tp215
Rp216
(I3
S'|'
p217
NNNI16
I1
I0
tp218
bS'dist_44_CA_88_CA'
p219
tp220
Rp221
I1
tp222
asS'TKL'
p223
(lp224
sS'AGC'
p225
(lp226
(g5
(g6
(S'S21'
p227
I0
I1
tp228
Rp229
(I3
S'|'
p230
NNNI21
I1
I0
tp231
bS'pd_CA_231_232_233_234'
p232
tp233
Rp234
I2000
tp235
a(g5
(g6
(S'S18'
p236
I0
I1
tp237
Rp238
(I3
S'|'
p239
NNNI18
I1
I0
tp240
bS'dist_232_CA_238_CA'
p241
tp242
Rp243
I2000
tp244
a(g5
(g6
(S'S18'
p245
I0
I1
tp246
Rp247
(I3
S'|'
p248
NNNI18
I1
I0
tp249
bS'dist_232_CA_234_CA'
p250
tp251
Rp252
I1209
tp253
a(g5
(g6
(S'S18'
p254
I0
I1
tp255
Rp256
(I3
S'|'
p257
NNNI18
I1
I0
tp258
bS'dist_231_CA_234_CA'
p259
tp260
Rp261
I1000
tp262
a(g5
(g6
(S'S18'
p263
I0
I1
tp264
Rp265
(I3
S'|'
p266
NNNI18
I1
I0
tp267
bS'dist_232_CA_233_CA'
p268
tp269
Rp270
I9
tp271
asS'CAMK'
p272
(lp273
(g5
(g6
(S'S21'
p274
I0
I1
tp275
Rp276
(I3
S'|'
p277
NNNI21
I1
I0
tp278
bS'pd_CA_170_171_172_173'
p279
tp280
Rp281
I2000
tp282
a(g5
(g6
(S'S7'
p283
I0
I1
tp284
Rp285
(I3
S'|'
p286
NNNI7
I1
I0
tp287
bS'chi1_64'
p288
tp289
Rp290
I1000
tp291
a(g5
(g6
(S'S18'
p292
I0
I1
tp293
Rp294
(I3
S'|'
p295
NNNI18
I1
I0
tp296
bS'dist_148_CA_201_CA'
p297
tp298
Rp299
I1000
tp300
asS'CK1'
p301
(lp302
(g5
(g6
(S'S18'
p303
I0
I1
tp304
Rp305
(I3
S'|'
p306
NNNI18
I1
I0
tp307
bS'dist_203_CA_205_CA'
p308
tp309
Rp310
I1000
tp311
asS'TK'
p312
(lp313
(g5
(g6
(S'S17'
p314
I0
I1
tp315
Rp316
(I3
S'|'
p317
NNNI17
I1
I0
tp318
bS'dist_34_CA_143_CA'
p319
tp320
Rp321
I2000
tp322
a(g5
(g6
(S'S18'
p323
I0
I1
tp324
Rp325
(I3
S'|'
p326
NNNI18
I1
I0
tp327
bS'dist_140_CA_149_CA'
p328
tp329
Rp330
I2000
tp331
a(g5
(g6
(S'S18'
p332
I0
I1
tp333
Rp334
(I3
S'|'
p335
NNNI18
I1
I0
tp336
bS'dist_138_CA_189_CA'
p337
tp338
Rp339
I1999
tp340
a(g5
(g6
(S'S18'
p341
I0
I1
tp342
Rp343
(I3
S'|'
p344
NNNI18
I1
I0
tp345
bS'dist_144_CA_193_CA'
p346
tp347
Rp348
I1999
tp349
a(g5
(g6
(S'S17'
p350
I0
I1
tp351
Rp352
(I3
S'|'
p353
NNNI17
I1
I0
tp354
bS'dist_38_CA_195_CA'
p355
tp356
Rp357
I1999
tp358
a(g5
(g6
(S'S18'
p359
I0
I1
tp360
Rp361
(I3
S'|'
p362
NNNI18
I1
I0
tp363
bS'dist_102_CA_189_CA'
p364
tp365
Rp366
I1998
tp367
a(g5
(g6
(S'S17'
p368
I0
I1
tp369
Rp370
(I3
S'|'
p371
NNNI17
I1
I0
tp372
bS'dist_48_CA_138_CA'
p373
tp374
Rp375
I1997
tp376
a(g5
(g6
(S'S17'
p377
I0
I1
tp378
Rp379
(I3
S'|'
p380
NNNI17
I1
I0
tp381
bS'dist_47_CA_138_CA'
p382
tp383
Rp384
I1673
tp385
a(g5
(g6
(S'S17'
p386
I0
I1
tp387
Rp388
(I3
S'|'
p389
NNNI17
I1
I0
tp390
bS'dist_47_CA_119_CA'
p391
tp392
Rp393
I1001
tp394
a(g5
(g6
(S'S18'
p395
I0
I1
tp396
Rp397
(I3
S'|'
p398
NNNI18
I1
I0
tp399
bS'dist_143_CA_193_CA'
p400
tp401
Rp402
I1001
tp403
a(g5
(g6
(S'S17'
p404
I0
I1
tp405
Rp406
(I3
S'|'
p407
NNNI17
I1
I0
tp408
bS'dist_34_CA_142_CA'
p409
tp410
Rp411
I1000
tp412
a(g5
(g6
(S'S21'
p413
I0
I1
tp414
Rp415
(I3
S'|'
p416
NNNI21
I1
I0
tp417
bS'pd_CA_135_136_137_138'
p418
tp419
Rp420
I993
tp421
a(g5
(g6
(S'S18'
p422
I0
I1
tp423
Rp424
(I3
S'|'
p425
NNNI18
I1
I0
tp426
bS'dist_103_CA_189_CA'
p427
tp428
Rp429
I788
tp430
a(g5
(g6
(S'S18'
p431
I0
I1
tp432
Rp433
(I3
S'|'
p434
NNNI18
I1
I0
tp435
bS'dist_133_CA_189_CA'
p436
tp437
Rp438
I207
tp439
a(g5
(g6
(S'S18'
p440
I0
I1
tp441
Rp442
(I3
S'|'
p443
NNNI18
I1
I0
tp444
bS'dist_144_CA_155_CA'
p445
tp446
Rp447
I35
tp448
a(g5
(g6
(S'S18'
p449
I0
I1
tp450
Rp451
(I3
S'|'
p452
NNNI18
I1
I0
tp453
bS'dist_172_CA_189_CA'
p454
tp455
Rp456
I3
tp457
a(g5
(g6
(S'S17'
p458
I0
I1
tp459
Rp460
(I3
S'|'
p461
NNNI17
I1
I0
tp462
bS'dist_56_CA_189_CA'
p463
tp464
Rp465
I3
tp466
a(g5
(g6
(S'S17'
p467
I0
I1
tp468
Rp469
(I3
S'|'
p470
NNNI17
I1
I0
tp471
bS'dist_99_CA_189_CA'
p472
tp473
Rp474
I2
tp475
a(g5
(g6
(S'S17'
p476
I0
I1
tp477
Rp478
(I3
S'|'
p479
NNNI17
I1
I0
tp480
bS'dist_45_CA_138_CA'
p481
tp482
Rp483
I1
tp484
asS'Kinome'
p485
(lp486
(g5
(g6
(S'S18'
p487
I0
I1
tp488
Rp489
(I3
S'|'
p490
NNNI18
I1
I0
tp491
bS'dist_131_CA_189_CA'
p492
tp493
Rp494
I2000
tp495
a(g5
(g6
(S'S17'
p496
I0
I1
tp497
Rp498
(I3
S'|'
p499
NNNI17
I1
I0
tp500
bS'dist_39_CA_139_CA'
p501
tp502
Rp503
I2000
tp504
a(g5
(g6
(S'S16'
p505
I0
I1
tp506
Rp507
(I3
S'|'
p508
NNNI16
I1
I0
tp509
bS'dist_21_CA_51_CA'
p510
tp511
Rp512
I2000
tp513
a(g5
(g6
(S'S17'
p514
I0
I1
tp515
Rp516
(I3
S'|'
p517
NNNI17
I1
I0
tp518
bS'dist_45_CA_138_CA'
p519
tp520
Rp521
I2000
tp522
a(g5
(g6
(S'S21'
p523
I0
I1
tp524
Rp525
(I3
S'|'
p526
NNNI21
I1
I0
tp527
bS'pd_CA_137_138_139_140'
p528
tp529
Rp530
I2000
tp531
a(g5
(g6
(S'S18'
p532
I0
I1
tp533
Rp534
(I3
S'|'
p535
NNNI18
I1
I0
tp536
bS'dist_119_CA_140_CA'
p537
tp538
Rp539
I2000
tp540
a(g5
(g6
(S'S18'
p541
I0
I1
tp542
Rp543
(I3
S'|'
p544
NNNI18
I1
I0
tp545
bS'dist_138_CA_141_CA'
p546
tp547
Rp548
I2000
tp549
a(g5
(g6
(S'S17'
p550
I0
I1
tp551
Rp552
(I3
S'|'
p553
NNNI17
I1
I0
tp554
bS'dist_47_CA_117_CA'
p555
tp556
Rp557
I1999
tp558
a(g5
(g6
(S'S18'
p559
I0
I1
tp560
Rp561
(I3
S'|'
p562
NNNI18
I1
I0
tp563
bS'dist_137_CA_172_CA'
p564
tp565
Rp566
I1999
tp567
a(g5
(g6
(S'S18'
p568
I0
I1
tp569
Rp570
(I3
S'|'
p571
NNNI18
I1
I0
tp572
bS'dist_115_CA_137_CA'
p573
tp574
Rp575
I1998
tp576
a(g5
(g6
(S'S18'
p577
I0
I1
tp578
Rp579
(I3
S'|'
p580
NNNI18
I1
I0
tp581
bS'dist_155_CA_164_CA'
p582
tp583
Rp584
I1992
tp585
a(g5
(g6
(S'S18'
p586
I0
I1
tp587
Rp588
(I3
S'|'
p589
NNNI18
I1
I0
tp590
bS'dist_141_CA_237_CA'
p591
tp592
Rp593
I1988
tp594
a(g5
(g6
(S'S18'
p595
I0
I1
tp596
Rp597
(I3
S'|'
p598
NNNI18
I1
I0
tp599
bS'dist_100_CA_139_CA'
p600
tp601
Rp602
I1966
tp603
a(g5
(g6
(S'S18'
p604
I0
I1
tp605
Rp606
(I3
S'|'
p607
NNNI18
I1
I0
tp608
bS'dist_112_CA_155_CA'
p609
tp610
Rp611
I1961
tp612
a(g5
(g6
(S'S17'
p613
I0
I1
tp614
Rp615
(I3
S'|'
p616
NNNI17
I1
I0
tp617
bS'dist_32_CA_139_CA'
p618
tp619
Rp620
I1924
tp621
a(g5
(g6
(S'S18'
p622
I0
I1
tp623
Rp624
(I3
S'|'
p625
NNNI18
I1
I0
tp626
bS'dist_104_CA_137_CA'
p627
tp628
Rp629
I1764
tp630
a(g5
(g6
(S'S18'
p631
I0
I1
tp632
Rp633
(I3
S'|'
p634
NNNI18
I1
I0
tp635
bS'dist_155_CA_172_CA'
p636
tp637
Rp638
I1754
tp639
a(g5
(g6
(S'S17'
p640
I0
I1
tp641
Rp642
(I3
S'|'
p643
NNNI17
I1
I0
tp644
bS'dist_48_CA_138_CA'
p645
tp646
Rp647
I981
tp648
a(g5
(g6
(S'S17'
p649
I0
I1
tp650
Rp651
(I3
S'|'
p652
NNNI17
I1
I0
tp653
bS'dist_45_CA_119_CA'
p654
tp655
Rp656
I981
tp657
a(g5
(g6
(S'S17'
p658
I0
I1
tp659
Rp660
(I3
S'|'
p661
NNNI17
I1
I0
tp662
bS'dist_45_CA_117_CA'
p663
tp664
Rp665
I977
tp666
a(g5
(g6
(S'S17'
p667
I0
I1
tp668
Rp669
(I3
S'|'
p670
NNNI17
I1
I0
tp671
bS'dist_47_CA_119_CA'
p672
tp673
Rp674
I975
tp675
a(g5
(g6
(S'S18'
p676
I0
I1
tp677
Rp678
(I3
S'|'
p679
NNNI18
I1
I0
tp680
bS'dist_141_CA_236_CA'
p681
tp682
Rp683
I969
tp684
a(g5
(g6
(S'S17'
p685
I0
I1
tp686
Rp687
(I3
S'|'
p688
NNNI17
I1
I0
tp689
bS'dist_47_CA_138_CA'
p690
tp691
Rp692
I893
tp693
a(g5
(g6
(S'S17'
p694
I0
I1
tp695
Rp696
(I3
S'|'
p697
NNNI17
I1
I0
tp698
bS'dist_44_CA_138_CA'
p699
tp700
Rp701
I888
tp702
a(g5
(g6
(S'S17'
p703
I0
I1
tp704
Rp705
(I3
S'|'
p706
NNNI17
I1
I0
tp707
bS'dist_48_CA_117_CA'
p708
tp709
Rp710
I884
tp711
a(g5
(g6
(S'S18'
p712
I0
I1
tp713
Rp714
(I3
S'|'
p715
NNNI18
I1
I0
tp716
bS'dist_141_CA_233_CA'
p717
tp718
Rp719
I871
tp720
a(g5
(g6
(S'S18'
p721
I0
I1
tp722
Rp723
(I3
S'|'
p724
NNNI18
I1
I0
tp725
bS'dist_111_CA_155_CA'
p726
tp727
Rp728
I782
tp729
a(g5
(g6
(S'S18'
p730
I0
I1
tp731
Rp732
(I3
S'|'
p733
NNNI18
I1
I0
tp734
bS'dist_137_CA_235_CA'
p735
tp736
Rp737
I776
tp738
a(g5
(g6
(S'S17'
p739
I0
I1
tp740
Rp741
(I3
S'|'
p742
NNNI17
I1
I0
tp743
bS'dist_98_CA_139_CA'
p744
tp745
Rp746
I662
tp747
a(g5
(g6
(S'S18'
p748
I0
I1
tp749
Rp750
(I3
S'|'
p751
NNNI18
I1
I0
tp752
bS'dist_141_CA_234_CA'
p753
tp754
Rp755
I602
tp756
a(g5
(g6
(S'S18'
p757
I0
I1
tp758
Rp759
(I3
S'|'
p760
NNNI18
I1
I0
tp761
bS'dist_139_CA_238_CA'
p762
tp763
Rp764
I559
tp765
a(g5
(g6
(S'S17'
p766
I0
I1
tp767
Rp768
(I3
S'|'
p769
NNNI17
I1
I0
tp770
bS'dist_23_CA_170_CA'
p771
tp772
Rp773
I549
tp774
a(g5
(g6
(S'S18'
p775
I0
I1
tp776
Rp777
(I3
S'|'
p778
NNNI18
I1
I0
tp779
bS'dist_114_CA_155_CA'
p780
tp781
Rp782
I507
tp783
a(g5
(g6
(S'S18'
p784
I0
I1
tp785
Rp786
(I3
S'|'
p787
NNNI18
I1
I0
tp788
bS'dist_139_CA_236_CA'
p789
tp790
Rp791
I466
tp792
a(g5
(g6
(S'S18'
p793
I0
I1
tp794
Rp795
(I3
S'|'
p796
NNNI18
I1
I0
tp797
bS'dist_113_CA_155_CA'
p798
tp799
Rp800
I427
tp801
a(g5
(g6
(S'S18'
p802
I0
I1
tp803
Rp804
(I3
S'|'
p805
NNNI18
I1
I0
tp806
bS'dist_141_CA_232_CA'
p807
tp808
Rp809
I400
tp810
a(g5
(g6
(S'S17'
p811
I0
I1
tp812
Rp813
(I3
S'|'
p814
NNNI17
I1
I0
tp815
bS'dist_43_CA_119_CA'
p816
tp817
Rp818
I386
tp819
a(g5
(g6
(S'S17'
p820
I0
I1
tp821
Rp822
(I3
S'|'
p823
NNNI17
I1
I0
tp824
bS'dist_43_CA_138_CA'
p825
tp826
Rp827
I382
tp828
a(g5
(g6
(S'S17'
p829
I0
I1
tp830
Rp831
(I3
S'|'
p832
NNNI17
I1
I0
tp833
bS'dist_69_CA_139_CA'
p834
tp835
Rp836
I377
tp837
a(g5
(g6
(S'S17'
p838
I0
I1
tp839
Rp840
(I3
S'|'
p841
NNNI17
I1
I0
tp842
bS'dist_47_CA_175_CA'
p843
tp844
Rp845
I299
tp846
a(g5
(g6
(S'S18'
p847
I0
I1
tp848
Rp849
(I3
S'|'
p850
NNNI18
I1
I0
tp851
bS'dist_137_CA_238_CA'
p852
tp853
Rp854
I291
tp855
a(g5
(g6
(S'S17'
p856
I0
I1
tp857
Rp858
(I3
S'|'
p859
NNNI17
I1
I0
tp860
bS'dist_48_CA_176_CA'
p861
tp862
Rp863
I287
tp864
a(g5
(g6
(S'S18'
p865
I0
I1
tp866
Rp867
(I3
S'|'
p868
NNNI18
I1
I0
tp869
bS'dist_140_CA_218_CA'
p870
tp871
Rp872
I233
tp873
a(g5
(g6
(S'S17'
p874
I0
I1
tp875
Rp876
(I3
S'|'
p877
NNNI17
I1
I0
tp878
bS'dist_47_CA_176_CA'
p879
tp880
Rp881
I232
tp882
a(g5
(g6
(S'S18'
p883
I0
I1
tp884
Rp885
(I3
S'|'
p886
NNNI18
I1
I0
tp887
bS'dist_137_CA_173_CA'
p888
tp889
Rp890
I156
tp891
a(g5
(g6
(S'S18'
p892
I0
I1
tp893
Rp894
(I3
S'|'
p895
NNNI18
I1
I0
tp896
bS'dist_137_CA_234_CA'
p897
tp898
Rp899
I152
tp900
a(g5
(g6
(S'S18'
p901
I0
I1
tp902
Rp903
(I3
S'|'
p904
NNNI18
I1
I0
tp905
bS'dist_131_CA_190_CA'
p906
tp907
Rp908
I152
tp909
a(g5
(g6
(S'S18'
p910
I0
I1
tp911
Rp912
(I3
S'|'
p913
NNNI18
I1
I0
tp914
bS'dist_139_CA_240_CA'
p915
tp916
Rp917
I150
tp918
a(g5
(g6
(S'S17'
p919
I0
I1
tp920
Rp921
(I3
S'|'
p922
NNNI17
I1
I0
tp923
bS'dist_48_CA_175_CA'
p924
tp925
Rp926
I150
tp927
a(g5
(g6
(S'S17'
p928
I0
I1
tp929
Rp930
(I3
S'|'
p931
NNNI17
I1
I0
tp932
bS'dist_46_CA_138_CA'
p933
tp934
Rp935
I142
tp936
a(g5
(g6
(S'S17'
p937
I0
I1
tp938
Rp939
(I3
S'|'
p940
NNNI17
I1
I0
tp941
bS'dist_43_CA_117_CA'
p942
tp943
Rp944
I125
tp945
a(g5
(g6
(S'S18'
p946
I0
I1
tp947
Rp948
(I3
S'|'
p949
NNNI18
I1
I0
tp950
bS'dist_155_CA_171_CA'
p951
tp952
Rp953
I108
tp954
a(g5
(g6
(S'S18'
p955
I0
I1
tp956
Rp957
(I3
S'|'
p958
NNNI18
I1
I0
tp959
bS'dist_141_CA_240_CA'
p960
tp961
Rp962
I85
tp963
a(g5
(g6
(S'S18'
p964
I0
I1
tp965
Rp966
(I3
S'|'
p967
NNNI18
I1
I0
tp968
bS'dist_101_CA_139_CA'
p969
tp970
Rp971
I65
tp972
a(g5
(g6
(S'S18'
p973
I0
I1
tp974
Rp975
(I3
S'|'
p976
NNNI18
I1
I0
tp977
bS'dist_137_CA_236_CA'
p978
tp979
Rp980
I62
tp981
a(g5
(g6
(S'S17'
p982
I0
I1
tp983
Rp984
(I3
S'|'
p985
NNNI17
I1
I0
tp986
bS'dist_97_CA_139_CA'
p987
tp988
Rp989
I60
tp990
a(g5
(g6
(S'S17'
p991
I0
I1
tp992
Rp993
(I3
S'|'
p994
NNNI17
I1
I0
tp995
bS'dist_43_CA_139_CA'
p996
tp997
Rp998
I58
tp999
a(g5
(g6
(S'S18'
p1000
I0
I1
tp1001
Rp1002
(I3
S'|'
p1003
NNNI18
I1
I0
tp1004
bS'dist_140_CA_178_CA'
p1005
tp1006
Rp1007
I57
tp1008
a(g5
(g6
(S'S18'
p1009
I0
I1
tp1010
Rp1011
(I3
S'|'
p1012
NNNI18
I1
I0
tp1013
bS'dist_107_CA_137_CA'
p1014
tp1015
Rp1016
I56
tp1017
a(g5
(g6
(S'S18'
p1018
I0
I1
tp1019
Rp1020
(I3
S'|'
p1021
NNNI18
I1
I0
tp1022
bS'dist_128_CA_189_CA'
p1023
tp1024
Rp1025
I52
tp1026
a(g5
(g6
(S'S16'
p1027
I0
I1
tp1028
Rp1029
(I3
S'|'
p1030
NNNI16
I1
I0
tp1031
bS'dist_22_CA_51_CA'
p1032
tp1033
Rp1034
I51
tp1035
a(g5
(g6
(S'S18'
p1036
I0
I1
tp1037
Rp1038
(I3
S'|'
p1039
NNNI18
I1
I0
tp1040
bS'dist_139_CA_237_CA'
p1041
tp1042
Rp1043
I45
tp1044
a(g5
(g6
(S'S18'
p1045
I0
I1
tp1046
Rp1047
(I3
S'|'
p1048
NNNI18
I1
I0
tp1049
bS'dist_116_CA_155_CA'
p1050
tp1051
Rp1052
I43
tp1053
a(g5
(g6
(S'S17'
p1054
I0
I1
tp1055
Rp1056
(I3
S'|'
p1057
NNNI17
I1
I0
tp1058
bS'dist_45_CA_139_CA'
p1059
tp1060
Rp1061
I42
tp1062
a(g5
(g6
(S'S18'
p1063
I0
I1
tp1064
Rp1065
(I3
S'|'
p1066
NNNI18
I1
I0
tp1067
bS'dist_115_CA_155_CA'
p1068
tp1069
Rp1070
I38
tp1071
a(g5
(g6
(S'S18'
p1072
I0
I1
tp1073
Rp1074
(I3
S'|'
p1075
NNNI18
I1
I0
tp1076
bS'dist_141_CA_238_CA'
p1077
tp1078
Rp1079
I33
tp1080
a(g5
(g6
(S'S7'
p1081
I0
I1
tp1082
Rp1083
(I3
S'|'
p1084
NNNI7
I1
I0
tp1085
bS'phi_139'
p1086
tp1087
Rp1088
I28
tp1089
a(g5
(g6
(S'S17'
p1090
I0
I1
tp1091
Rp1092
(I3
S'|'
p1093
NNNI17
I1
I0
tp1094
bS'dist_23_CA_140_CA'
p1095
tp1096
Rp1097
I24
tp1098
a(g5
(g6
(S'S18'
p1099
I0
I1
tp1100
Rp1101
(I3
S'|'
p1102
NNNI18
I1
I0
tp1103
bS'dist_114_CA_137_CA'
p1104
tp1105
Rp1106
I19
tp1107
a(g5
(g6
(S'S17'
p1108
I0
I1
tp1109
Rp1110
(I3
S'|'
p1111
NNNI17
I1
I0
tp1112
bS'dist_47_CA_180_CA'
p1113
tp1114
Rp1115
I16
tp1116
a(g5
(g6
(S'S18'
p1117
I0
I1
tp1118
Rp1119
(I3
S'|'
p1120
NNNI18
I1
I0
tp1121
bS'dist_141_CA_235_CA'
p1122
tp1123
Rp1124
I15
tp1125
a(g5
(g6
(S'S17'
p1126
I0
I1
tp1127
Rp1128
(I3
S'|'
p1129
NNNI17
I1
I0
tp1130
bS'dist_44_CA_175_CA'
p1131
tp1132
Rp1133
I14
tp1134
a(g5
(g6
(S'S17'
p1135
I0
I1
tp1136
Rp1137
(I3
S'|'
p1138
NNNI17
I1
I0
tp1139
bS'dist_47_CA_177_CA'
p1140
tp1141
Rp1142
I14
tp1143
a(g5
(g6
(S'S17'
p1144
I0
I1
tp1145
Rp1146
(I3
S'|'
p1147
NNNI17
I1
I0
tp1148
bS'dist_44_CA_119_CA'
p1149
tp1150
Rp1151
I14
tp1152
a(g5
(g6
(S'S17'
p1153
I0
I1
tp1154
Rp1155
(I3
S'|'
p1156
NNNI17
I1
I0
tp1157
bS'dist_44_CA_176_CA'
p1158
tp1159
Rp1160
I12
tp1161
a(g5
(g6
(S'S18'
p1162
I0
I1
tp1163
Rp1164
(I3
S'|'
p1165
NNNI18
I1
I0
tp1166
bS'dist_139_CA_235_CA'
p1167
tp1168
Rp1169
I11
tp1170
a(g5
(g6
(S'S17'
p1171
I0
I1
tp1172
Rp1173
(I3
S'|'
p1174
NNNI17
I1
I0
tp1175
bS'dist_45_CA_175_CA'
p1176
tp1177
Rp1178
I11
tp1179
a(g5
(g6
(S'S17'
p1180
I0
I1
tp1181
Rp1182
(I3
S'|'
p1183
NNNI17
I1
I0
tp1184
bS'dist_45_CA_176_CA'
p1185
tp1186
Rp1187
I9
tp1188
a(g5
(g6
(S'S17'
p1189
I0
I1
tp1190
Rp1191
(I3
S'|'
p1192
NNNI17
I1
I0
tp1193
bS'dist_48_CA_177_CA'
p1194
tp1195
Rp1196
I8
tp1197
a(g5
(g6
(S'S17'
p1198
I0
I1
tp1199
Rp1200
(I3
S'|'
p1201
NNNI17
I1
I0
tp1202
bS'dist_49_CA_138_CA'
p1203
tp1204
Rp1205
I8
tp1206
a(g5
(g6
(S'S17'
p1207
I0
I1
tp1208
Rp1209
(I3
S'|'
p1210
NNNI17
I1
I0
tp1211
bS'dist_48_CA_174_CA'
p1212
tp1213
Rp1214
I8
tp1215
a(g5
(g6
(S'S17'
p1216
I0
I1
tp1217
Rp1218
(I3
S'|'
p1219
NNNI17
I1
I0
tp1220
bS'dist_44_CA_117_CA'
p1221
tp1222
Rp1223
I7
tp1224
a(g5
(g6
(S'S18'
p1225
I0
I1
tp1226
Rp1227
(I3
S'|'
p1228
NNNI18
I1
I0
tp1229
bS'dist_137_CA_237_CA'
p1230
tp1231
Rp1232
I6
tp1233
a(g5
(g6
(S'S18'
p1234
I0
I1
tp1235
Rp1236
(I3
S'|'
p1237
NNNI18
I1
I0
tp1238
bS'dist_141_CA_239_CA'
p1239
tp1240
Rp1241
I6
tp1242
a(g5
(g6
(S'S18'
p1243
I0
I1
tp1244
Rp1245
(I3
S'|'
p1246
NNNI18
I1
I0
tp1247
bS'dist_155_CA_173_CA'
p1248
tp1249
Rp1250
I6
tp1251
a(g5
(g6
(S'S18'
p1252
I0
I1
tp1253
Rp1254
(I3
S'|'
p1255
NNNI18
I1
I0
tp1256
bS'dist_155_CA_161_CA'
p1257
tp1258
Rp1259
I6
tp1260
a(g5
(g6
(S'S17'
p1261
I0
I1
tp1262
Rp1263
(I3
S'|'
p1264
NNNI17
I1
I0
tp1265
bS'dist_47_CA_179_CA'
p1266
tp1267
Rp1268
I6
tp1269
a(g5
(g6
(S'S18'
p1270
I0
I1
tp1271
Rp1272
(I3
S'|'
p1273
NNNI18
I1
I0
tp1274
bS'dist_140_CA_179_CA'
p1275
tp1276
Rp1277
I6
tp1278
a(g5
(g6
(S'S17'
p1279
I0
I1
tp1280
Rp1281
(I3
S'|'
p1282
NNNI17
I1
I0
tp1283
bS'dist_44_CA_180_CA'
p1284
tp1285
Rp1286
I5
tp1287
a(g5
(g6
(S'S17'
p1288
I0
I1
tp1289
Rp1290
(I3
S'|'
p1291
NNNI17
I1
I0
tp1292
bS'dist_48_CA_119_CA'
p1293
tp1294
Rp1295
I4
tp1296
a(g5
(g6
(S'S18'
p1297
I0
I1
tp1298
Rp1299
(I3
S'|'
p1300
NNNI18
I1
I0
tp1301
bS'dist_108_CA_137_CA'
p1302
tp1303
Rp1304
I4
tp1305
a(g5
(g6
(S'S18'
p1306
I0
I1
tp1307
Rp1308
(I3
S'|'
p1309
NNNI18
I1
I0
tp1310
bS'dist_140_CA_215_CA'
p1311
tp1312
Rp1313
I4
tp1314
a(g5
(g6
(S'S17'
p1315
I0
I1
tp1316
Rp1317
(I3
S'|'
p1318
NNNI17
I1
I0
tp1319
bS'dist_43_CA_175_CA'
p1320
tp1321
Rp1322
I3
tp1323
a(g5
(g6
(S'S17'
p1324
I0
I1
tp1325
Rp1326
(I3
S'|'
p1327
NNNI17
I1
I0
tp1328
bS'dist_44_CA_179_CA'
p1329
tp1330
Rp1331
I3
tp1332
a(g5
(g6
(S'S17'
p1333
I0
I1
tp1334
Rp1335
(I3
S'|'
p1336
NNNI17
I1
I0
tp1337
bS'dist_45_CA_180_CA'
p1338
tp1339
Rp1340
I3
tp1341
a(g5
(g6
(S'S17'
p1342
I0
I1
tp1343
Rp1344
(I3
S'|'
p1345
NNNI17
I1
I0
tp1346
bS'dist_45_CA_179_CA'
p1347
tp1348
Rp1349
I3
tp1350
a(g5
(g6
(S'S18'
p1351
I0
I1
tp1352
Rp1353
(I3
S'|'
p1354
NNNI18
I1
I0
tp1355
bS'dist_132_CA_189_CA'
p1356
tp1357
Rp1358
I3
tp1359
a(g5
(g6
(S'S18'
p1360
I0
I1
tp1361
Rp1362
(I3
S'|'
p1363
NNNI18
I1
I0
tp1364
bS'dist_155_CA_163_CA'
p1365
tp1366
Rp1367
I3
tp1368
a(g5
(g6
(S'S17'
p1369
I0
I1
tp1370
Rp1371
(I3
S'|'
p1372
NNNI17
I1
I0
tp1373
bS'dist_43_CA_179_CA'
p1374
tp1375
Rp1376
I3
tp1377
a(g5
(g6
(S'S17'
p1378
I0
I1
tp1379
Rp1380
(I3
S'|'
p1381
NNNI17
I1
I0
tp1382
bS'dist_43_CA_180_CA'
p1383
tp1384
Rp1385
I2
tp1386
a(g5
(g6
(S'S17'
p1387
I0
I1
tp1388
Rp1389
(I3
S'|'
p1390
NNNI17
I1
I0
tp1391
bS'dist_48_CA_180_CA'
p1392
tp1393
Rp1394
I2
tp1395
a(g5
(g6
(S'S17'
p1396
I0
I1
tp1397
Rp1398
(I3
S'|'
p1399
NNNI17
I1
I0
tp1400
bS'dist_45_CA_177_CA'
p1401
tp1402
Rp1403
I2
tp1404
a(g5
(g6
(S'S17'
p1405
I0
I1
tp1406
Rp1407
(I3
S'|'
p1408
NNNI17
I1
I0
tp1409
bS'dist_70_CA_139_CA'
p1410
tp1411
Rp1412
I2
tp1413
a(g5
(g6
(S'S17'
p1414
I0
I1
tp1415
Rp1416
(I3
S'|'
p1417
NNNI17
I1
I0
tp1418
bS'dist_47_CA_178_CA'
p1419
tp1420
Rp1421
I2
tp1422
a(g5
(g6
(S'S17'
p1423
I0
I1
tp1424
Rp1425
(I3
S'|'
p1426
NNNI17
I1
I0
tp1427
bS'dist_63_CA_238_CA'
p1428
tp1429
Rp1430
I2
tp1431
a(g5
(g6
(S'S17'
p1432
I0
I1
tp1433
Rp1434
(I3
S'|'
p1435
NNNI17
I1
I0
tp1436
bS'dist_45_CA_178_CA'
p1437
tp1438
Rp1439
I2
tp1440
a(g5
(g6
(S'S17'
p1441
I0
I1
tp1442
Rp1443
(I3
S'|'
p1444
NNNI17
I1
I0
tp1445
bS'dist_44_CA_177_CA'
p1446
tp1447
Rp1448
I2
tp1449
a(g5
(g6
(S'S17'
p1450
I0
I1
tp1451
Rp1452
(I3
S'|'
p1453
NNNI17
I1
I0
tp1454
bS'dist_44_CA_174_CA'
p1455
tp1456
Rp1457
I2
tp1458
a(g5
(g6
(S'S17'
p1459
I0
I1
tp1460
Rp1461
(I3
S'|'
p1462
NNNI17
I1
I0
tp1463
bS'dist_47_CA_222_CA'
p1464
tp1465
Rp1466
I2
tp1467
a(g5
(g6
(S'S18'
p1468
I0
I1
tp1469
Rp1470
(I3
S'|'
p1471
NNNI18
I1
I0
tp1472
bS'dist_140_CA_216_CA'
p1473
tp1474
Rp1475
I2
tp1476
a(g5
(g6
(S'S18'
p1477
I0
I1
tp1478
Rp1479
(I3
S'|'
p1480
NNNI18
I1
I0
tp1481
bS'dist_140_CA_222_CA'
p1482
tp1483
Rp1484
I2
tp1485
a(g5
(g6
(S'S17'
p1486
I0
I1
tp1487
Rp1488
(I3
S'|'
p1489
NNNI17
I1
I0
tp1490
bS'dist_51_CA_155_CA'
p1491
tp1492
Rp1493
I1
tp1494
a(g5
(g6
(S'S18'
p1495
I0
I1
tp1496
Rp1497
(I3
S'|'
p1498
NNNI18
I1
I0
tp1499
bS'dist_140_CA_219_CA'
p1500
tp1501
Rp1502
I1
tp1503
a(g5
(g6
(S'S17'
p1504
I0
I1
tp1505
Rp1506
(I3
S'|'
p1507
NNNI17
I1
I0
tp1508
bS'dist_48_CA_224_CA'
p1509
tp1510
Rp1511
I1
tp1512
a(g5
(g6
(S'S16'
p1513
I0
I1
tp1514
Rp1515
(I3
S'|'
p1516
NNNI16
I1
I0
tp1517
bS'dist_21_CA_55_CA'
p1518
tp1519
Rp1520
I1
tp1521
a(g5
(g6
(S'S18'
p1522
I0
I1
tp1523
Rp1524
(I3
S'|'
p1525
NNNI18
I1
I0
tp1526
bS'dist_140_CA_180_CA'
p1527
tp1528
Rp1529
I1
tp1530
a(g5
(g6
(S'S16'
p1531
I0
I1
tp1532
Rp1533
(I3
S'|'
p1534
NNNI16
I1
I0
tp1535
bS'dist_21_CA_50_CA'
p1536
tp1537
Rp1538
I1
tp1539
a(g5
(g6
(S'S18'
p1540
I0
I1
tp1541
Rp1542
(I3
S'|'
p1543
NNNI18
I1
I0
tp1544
bS'dist_116_CA_137_CA'
p1545
tp1546
Rp1547
I1
tp1548
a(g5
(g6
(S'S18'
p1549
I0
I1
tp1550
Rp1551
(I3
S'|'
p1552
NNNI18
I1
I0
tp1553
bS'dist_140_CA_181_CA'
p1554
tp1555
Rp1556
I1
tp1557
a(g5
(g6
(S'S18'
p1558
I0
I1
tp1559
Rp1560
(I3
S'|'
p1561
NNNI18
I1
I0
tp1562
bS'dist_106_CA_141_CA'
p1563
tp1564
Rp1565
I1
tp1566
a(g5
(g6
(S'S18'
p1567
I0
I1
tp1568
Rp1569
(I3
S'|'
p1570
NNNI18
I1
I0
tp1571
bS'dist_111_CA_137_CA'
p1572
tp1573
Rp1574
I1
tp1575
a(g5
(g6
(S'S17'
p1576
I0
I1
tp1577
Rp1578
(I3
S'|'
p1579
NNNI17
I1
I0
tp1580
bS'dist_44_CA_215_CA'
p1581
tp1582
Rp1583
I1
tp1584
a(g5
(g6
(S'S16'
p1585
I0
I1
tp1586
Rp1587
(I3
S'|'
p1588
NNNI16
I1
I0
tp1589
bS'dist_22_CA_47_CA'
p1590
tp1591
Rp1592
I1
tp1593
a(g5
(g6
(S'S18'
p1594
I0
I1
tp1595
Rp1596
(I3
S'|'
p1597
NNNI18
I1
I0
tp1598
bS'dist_155_CA_227_CA'
p1599
tp1600
Rp1601
I1
tp1602
a(g5
(g6
(S'S18'
p1603
I0
I1
tp1604
Rp1605
(I3
S'|'
p1606
NNNI18
I1
I0
tp1607
bS'dist_103_CA_141_CA'
p1608
tp1609
Rp1610
I1
tp1611
a(g5
(g6
(S'S18'
p1612
I0
I1
tp1613
Rp1614
(I3
S'|'
p1615
NNNI18
I1
I0
tp1616
bS'dist_103_CA_139_CA'
p1617
tp1618
Rp1619
I1
tp1620
a(g5
(g6
(S'S18'
p1621
I0
I1
tp1622
Rp1623
(I3
S'|'
p1624
NNNI18
I1
I0
tp1625
bS'dist_105_CA_141_CA'
p1626
tp1627
Rp1628
I1
tp1629
a(g5
(g6
(S'S18'
p1630
I0
I1
tp1631
Rp1632
(I3
S'|'
p1633
NNNI18
I1
I0
tp1634
bS'dist_156_CA_161_CA'
p1635
tp1636
Rp1637
I1
tp1638
a(g5
(g6
(S'S18'
p1639
I0
I1
tp1640
Rp1641
(I3
S'|'
p1642
NNNI18
I1
I0
tp1643
bS'dist_105_CA_137_CA'
p1644
tp1645
Rp1646
I1
tp1647
a(g5
(g6
(S'S17'
p1648
I0
I1
tp1649
Rp1650
(I3
S'|'
p1651
NNNI17
I1
I0
tp1652
bS'dist_43_CA_176_CA'
p1653
tp1654
Rp1655
I1
tp1656
a(g5
(g6
(S'S17'
p1657
I0
I1
tp1658
Rp1659
(I3
S'|'
p1660
NNNI17
I1
I0
tp1661
bS'dist_43_CA_177_CA'
p1662
tp1663
Rp1664
I1
tp1665
a(g5
(g6
(S'S17'
p1666
I0
I1
tp1667
Rp1668
(I3
S'|'
p1669
NNNI17
I1
I0
tp1670
bS'dist_44_CA_181_CA'
p1671
tp1672
Rp1673
I1
tp1674
a(g5
(g6
(S'S17'
p1675
I0
I1
tp1676
Rp1677
(I3
S'|'
p1678
NNNI17
I1
I0
tp1679
bS'dist_99_CA_139_CA'
p1680
tp1681
Rp1682
I1
tp1683
a(g5
(g6
(S'S18'
p1684
I0
I1
tp1685
Rp1686
(I3
S'|'
p1687
NNNI18
I1
I0
tp1688
bS'dist_101_CA_141_CA'
p1689
tp1690
Rp1691
I1
tp1692
asS'TK/CMGC'
p1693
(lp1694
(g5
(g6
(S'S18'
p1695
I0
I1
tp1696
Rp1697
(I3
S'|'
p1698
NNNI18
I1
I0
tp1699
bS'dist_131_CA_189_CA'
p1700
tp1701
Rp1702
I2000
tp1703
a(g5
(g6
(S'S18'
p1704
I0
I1
tp1705
Rp1706
(I3
S'|'
p1707
NNNI18
I1
I0
tp1708
bS'dist_115_CA_137_CA'
p1709
tp1710
Rp1711
I2000
tp1712
a(g5
(g6
(S'S17'
p1713
I0
I1
tp1714
Rp1715
(I3
S'|'
p1716
NNNI17
I1
I0
tp1717
bS'dist_45_CA_138_CA'
p1718
tp1719
Rp1720
I2000
tp1721
a(g5
(g6
(S'S18'
p1722
I0
I1
tp1723
Rp1724
(I3
S'|'
p1725
NNNI18
I1
I0
tp1726
bS'dist_141_CA_233_CA'
p1727
tp1728
Rp1729
I2000
tp1730
a(g5
(g6
(S'S21'
p1731
I0
I1
tp1732
Rp1733
(I3
S'|'
p1734
NNNI21
I1
I0
tp1735
bS'pd_CA_137_138_139_140'
p1736
tp1737
Rp1738
I2000
tp1739
a(g5
(g6
(S'S17'
p1740
I0
I1
tp1741
Rp1742
(I3
S'|'
p1743
NNNI17
I1
I0
tp1744
bS'dist_39_CA_139_CA'
p1745
tp1746
Rp1747
I2000
tp1748
a(g5
(g6
(S'S7'
p1749
I0
I1
tp1750
Rp1751
(I3
S'|'
p1752
NNNI7
I1
I0
tp1753
bS'phi_139'
p1754
tp1755
Rp1756
I1998
tp1757
a(g5
(g6
(S'S17'
p1758
I0
I1
tp1759
Rp1760
(I3
S'|'
p1761
NNNI17
I1
I0
tp1762
bS'dist_45_CA_117_CA'
p1763
tp1764
Rp1765
I1995
tp1766
a(g5
(g6
(S'S17'
p1767
I0
I1
tp1768
Rp1769
(I3
S'|'
p1770
NNNI17
I1
I0
tp1771
bS'dist_47_CA_117_CA'
p1772
tp1773
Rp1774
I1956
tp1775
a(g5
(g6
(S'S17'
p1776
I0
I1
tp1777
Rp1778
(I3
S'|'
p1779
NNNI17
I1
I0
tp1780
bS'dist_87_CA_189_CA'
p1781
tp1782
Rp1783
I1618
tp1784
a(g5
(g6
(S'S17'
p1785
I0
I1
tp1786
Rp1787
(I3
S'|'
p1788
NNNI17
I1
I0
tp1789
bS'dist_32_CA_139_CA'
p1790
tp1791
Rp1792
I1003
tp1793
a(g5
(g6
(S'S17'
p1794
I0
I1
tp1795
Rp1796
(I3
S'|'
p1797
NNNI17
I1
I0
tp1798
bS'dist_48_CA_174_CA'
p1799
tp1800
Rp1801
I936
tp1802
a(g5
(g6
(S'S17'
p1803
I0
I1
tp1804
Rp1805
(I3
S'|'
p1806
NNNI17
I1
I0
tp1807
bS'dist_45_CA_119_CA'
p1808
tp1809
Rp1810
I894
tp1811
a(g5
(g6
(S'S18'
p1812
I0
I1
tp1813
Rp1814
(I3
S'|'
p1815
NNNI18
I1
I0
tp1816
bS'dist_141_CA_237_CA'
p1817
tp1818
Rp1819
I787
tp1820
a(g5
(g6
(S'S18'
p1821
I0
I1
tp1822
Rp1823
(I3
S'|'
p1824
NNNI18
I1
I0
tp1825
bS'dist_141_CA_236_CA'
p1826
tp1827
Rp1828
I748
tp1829
a(g5
(g6
(S'S17'
p1830
I0
I1
tp1831
Rp1832
(I3
S'|'
p1833
NNNI17
I1
I0
tp1834
bS'dist_47_CA_119_CA'
p1835
tp1836
Rp1837
I552
tp1838
a(g5
(g6
(S'S17'
p1839
I0
I1
tp1840
Rp1841
(I3
S'|'
p1842
NNNI17
I1
I0
tp1843
bS'dist_47_CA_175_CA'
p1844
tp1845
Rp1846
I319
tp1847
a(g5
(g6
(S'S17'
p1848
I0
I1
tp1849
Rp1850
(I3
S'|'
p1851
NNNI17
I1
I0
tp1852
bS'dist_44_CA_138_CA'
p1853
tp1854
Rp1855
I257
tp1856
a(g5
(g6
(S'S17'
p1857
I0
I1
tp1858
Rp1859
(I3
S'|'
p1860
NNNI17
I1
I0
tp1861
bS'dist_43_CA_138_CA'
p1862
tp1863
Rp1864
I242
tp1865
a(g5
(g6
(S'S17'
p1866
I0
I1
tp1867
Rp1868
(I3
S'|'
p1869
NNNI17
I1
I0
tp1870
bS'dist_47_CA_176_CA'
p1871
tp1872
Rp1873
I144
tp1874
a(g5
(g6
(S'S17'
p1875
I0
I1
tp1876
Rp1877
(I3
S'|'
p1878
NNNI17
I1
I0
tp1879
bS'dist_48_CA_175_CA'
p1880
tp1881
Rp1882
I104
tp1883
a(g5
(g6
(S'S17'
p1884
I0
I1
tp1885
Rp1886
(I3
S'|'
p1887
NNNI17
I1
I0
tp1888
bS'dist_48_CA_176_CA'
p1889
tp1890
Rp1891
I62
tp1892
a(g5
(g6
(S'S17'
p1893
I0
I1
tp1894
Rp1895
(I3
S'|'
p1896
NNNI17
I1
I0
tp1897
bS'dist_45_CA_118_CA'
p1898
tp1899
Rp1900
I58
tp1901
a(g5
(g6
(S'S17'
p1902
I0
I1
tp1903
Rp1904
(I3
S'|'
p1905
NNNI17
I1
I0
tp1906
bS'dist_48_CA_117_CA'
p1907
tp1908
Rp1909
I47
tp1910
a(g5
(g6
(S'S18'
p1911
I0
I1
tp1912
Rp1913
(I3
S'|'
p1914
NNNI18
I1
I0
tp1915
bS'dist_155_CA_164_CA'
p1916
tp1917
Rp1918
I20
tp1919
a(g5
(g6
(S'S17'
p1920
I0
I1
tp1921
Rp1922
(I3
S'|'
p1923
NNNI17
I1
I0
tp1924
bS'dist_47_CA_180_CA'
p1925
tp1926
Rp1927
I15
tp1928
a(g5
(g6
(S'S17'
p1929
I0
I1
tp1930
Rp1931
(I3
S'|'
p1932
NNNI17
I1
I0
tp1933
bS'dist_55_CA_189_CA'
p1934
tp1935
Rp1936
I15
tp1937
a(g5
(g6
(S'S18'
p1938
I0
I1
tp1939
Rp1940
(I3
S'|'
p1941
NNNI18
I1
I0
tp1942
bS'dist_141_CA_234_CA'
p1943
tp1944
Rp1945
I12
tp1946
a(g5
(g6
(S'S17'
p1947
I0
I1
tp1948
Rp1949
(I3
S'|'
p1950
NNNI17
I1
I0
tp1951
bS'dist_47_CA_138_CA'
p1952
tp1953
Rp1954
I6
tp1955
a(g5
(g6
(S'S17'
p1956
I0
I1
tp1957
Rp1958
(I3
S'|'
p1959
NNNI17
I1
I0
tp1960
bS'dist_45_CA_175_CA'
p1961
tp1962
Rp1963
I5
tp1964
a(g5
(g6
(S'S18'
p1965
I0
I1
tp1966
Rp1967
(I3
S'|'
p1968
NNNI18
I1
I0
tp1969
bS'dist_141_CA_232_CA'
p1970
tp1971
Rp1972
I5
tp1973
a(g5
(g6
(S'S17'
p1974
I0
I1
tp1975
Rp1976
(I3
S'|'
p1977
NNNI17
I1
I0
tp1978
bS'dist_47_CA_177_CA'
p1979
tp1980
Rp1981
I5
tp1982
a(g5
(g6
(S'S18'
p1983
I0
I1
tp1984
Rp1985
(I3
S'|'
p1986
NNNI18
I1
I0
tp1987
bS'dist_147_CA_167_CA'
p1988
tp1989
Rp1990
I4
tp1991
a(g5
(g6
(S'S17'
p1992
I0
I1
tp1993
Rp1994
(I3
S'|'
p1995
NNNI17
I1
I0
tp1996
bS'dist_45_CA_179_CA'
p1997
tp1998
Rp1999
I3
tp2000
a(g5
(g6
(S'S17'
p2001
I0
I1
tp2002
Rp2003
(I3
S'|'
p2004
NNNI17
I1
I0
tp2005
bS'dist_43_CA_119_CA'
p2006
tp2007
Rp2008
I2
tp2009
a(g5
(g6
(S'S17'
p2010
I0
I1
tp2011
Rp2012
(I3
S'|'
p2013
NNNI17
I1
I0
tp2014
bS'dist_48_CA_116_CA'
p2015
tp2016
Rp2017
I2
tp2018
a(g5
(g6
(S'S18'
p2019
I0
I1
tp2020
Rp2021
(I3
S'|'
p2022
NNNI18
I1
I0
tp2023
bS'dist_116_CA_137_CA'
p2024
tp2025
Rp2026
I2
tp2027
a(g5
(g6
(S'S17'
p2028
I0
I1
tp2029
Rp2030
(I3
S'|'
p2031
NNNI17
I1
I0
tp2032
bS'dist_45_CA_180_CA'
p2033
tp2034
Rp2035
I1
tp2036
a(g5
(g6
(S'S17'
p2037
I0
I1
tp2038
Rp2039
(I3
S'|'
p2040
NNNI17
I1
I0
tp2041
bS'dist_54_CA_189_CA'
p2042
tp2043
Rp2044
I1
tp2045
a(g5
(g6
(S'S17'
p2046
I0
I1
tp2047
Rp2048
(I3
S'|'
p2049
NNNI17
I1
I0
tp2050
bS'dist_45_CA_176_CA'
p2051
tp2052
Rp2053
I1
tp2054
a(g5
(g6
(S'S17'
p2055
I0
I1
tp2056
Rp2057
(I3
S'|'
p2058
NNNI17
I1
I0
tp2059
bS'dist_47_CA_118_CA'
p2060
tp2061
Rp2062
I1
tp2063
as.