(lp0
(dp1
S'3lmg_b'
p2
(lp3
I9
aI0
aI8
asS'4o0r_a'
p4
(lp5
I9
aI0
aI8
asS'2w1z_a'
p6
(lp7
I-1
aI8
aI0
asS'3rep_a'
p8
(lp9
I9
aI0
aI0
asS'4x3j_a'
p10
(lp11
I9
aI0
aI8
asS'1zmv_b'
p12
(lp13
I0
aI8
aI-1
asS'3lmg_a'
p14
(lp15
I9
aI0
aI8
asS'4btf_a'
p16
(lp17
I9
aI0
aI0
asS'3byv_a'
p18
(lp19
I9
aI0
aI0
asS'3gni_b'
p20
(lp21
I0
aI0
aI0
asS'4xr7_f'
p22
(lp23
I9
aI0
aI0
asS'4bbf_c'
p24
(lp25
I9
aI0
aI8
asS'4cyj_a'
p26
(lp27
I0
aI0
aI-1
asS'2hen_d'
p28
(lp29
I9
aI0
aI8
asS'4cyj_c'
p30
(lp31
I0
aI0
aI-1
asS'4cyj_b'
p32
(lp33
I0
aI0
aI-1
asS'4cyj_d'
p34
(lp35
I0
aI0
aI-1
asS'4bwk_b'
p36
(lp37
I0
aI0
aI-1
asS'3gop_a'
p38
(lp39
I0
aI8
aI8
asS'4cyi_d'
p40
(lp41
I0
aI0
aI0
asS'2y4i_b'
p42
(lp43
I0
aI8
aI8
asS'3kk8_a'
p44
(lp45
I9
aI0
aI8
asS'4x7k_a'
p46
(lp47
I-1
aI0
aI8
asS'3uiu_a'
p48
(lp49
I0
aI8
aI8
asS'3uiu_b'
p50
(lp51
I0
aI8
aI8
asS'4bwk_a'
p52
(lp53
I0
aI0
aI-1
asS'2hen_b'
p54
(lp55
I9
aI0
aI8
asS'4cyi_a'
p56
(lp57
I0
aI0
aI0
asS'3ekk_a'
p58
(lp59
I18
aI0
aI8
asS'2wzj_c'
p60
(lp61
I0
aI8
aI8
asS'4x7n_a'
p62
(lp63
I-1
aI0
aI8
asS'2wzj_a'
p64
(lp65
I0
aI8
aI8
asS'3q60_a'
p66
(lp67
I-1
aI0
aI8
asS'4dc2_a'
p68
(lp69
I0
aI8
aI8
asS'2wzj_d'
p70
(lp71
I0
aI8
aI8
asS'2wzj_e'
p72
(lp73
I0
aI8
aI8
asS'2fo0_a'
p74
(lp75
I9
aI0
aI8
asS'3zon_a'
p76
(lp77
I9
aI0
aI8
asS'3tac_a'
p78
(lp79
I9
aI8
aI0
asS'4i93_b'
p80
(lp81
I9
aI8
aI0
asS'3fy0_a'
p82
(lp83
I0
aI8
aI8
asS'3fxz_a'
p84
(lp85
I0
aI8
aI8
asS'2wzj_b'
p86
(lp87
I0
aI8
aI8
asS'1tki_a'
p88
(lp89
I9
aI8
aI0
asS'4lgd_b'
p90
(lp91
I22
aI0
aI12
asS'1yhv_a'
p92
(lp93
I0
aI8
aI8
asS'4eqc_a'
p94
(lp95
I0
aI8
aI8
asS'4lgd_c'
p96
(lp97
I22
aI0
aI12
asS'4czy_d'
p98
(lp99
I0
aI0
aI-1
asS'3ekn_a'
p100
(lp101
I9
aI0
aI8
asS'3nyx_a'
p102
(lp103
I9
aI0
aI8
asS'4i92_a'
p104
(lp105
I9
aI8
aI0
asS'3o0g_a'
p106
(lp107
I9
aI8
aI0
asS'3kmw_a'
p108
(lp109
I9
aI0
aI0
asS'2hy8_1'
p110
(lp111
I0
aI8
aI8
asS'1tki_b'
p112
(lp113
I9
aI8
aI0
asS'1ol6_a'
p114
(lp115
I9
aI8
aI0
asS'4pdp_a'
p116
(lp117
I9
aI8
aI0
asS'4otw_a'
p118
(lp119
I9
aI0
aI8
asS'4euu_a'
p120
(lp121
I9
aI0
aI8
asS'4euu_b'
p122
(lp123
I9
aI0
aI8
asS'4l00_b'
p124
(lp125
I9
aI0
aI8
asS'4pds_a'
p126
(lp127
I5
aI5
aI0
asS'4pds_b'
p128
(lp129
I5
aI8
aI0
asS'4mwi_a'
p130
(lp131
I9
aI0
aI0
asS'4m69_b'
p132
(lp133
I9
aI0
aI0
asS'4iw0_a'
p134
(lp135
I9
aI0
aI8
asS'3soa_a'
p136
(lp137
I0
aI0
aI8
asS'3kmu_a'
p138
(lp139
I9
aI0
aI-1
asS'4fzd_b'
p140
(lp141
I9
aI8
aI0
asS'4xr7_l'
p142
(lp143
I5
aI0
aI0
asS'4xr7_k'
p144
(lp145
I5
aI0
aI0
asS'4xr7_h'
p146
(lp147
I5
aI0
aI0
asS'4xr7_i'
p148
(lp149
I9
aI0
aI0
asS'4o0r_b'
p150
(lp151
I9
aI0
aI8
asS'4fza_b'
p152
(lp153
I9
aI8
aI0
asS'4lqs_a'
p154
(lp155
I9
aI0
aI8
asS'4xr7_e'
p156
(lp157
I9
aI0
aI0
asS'4xr7_b'
p158
(lp159
I9
aI0
aI0
asS'4xr7_c'
p160
(lp161
I9
aI0
aI0
asS'4ixp_a'
p162
(lp163
I0
aI8
aI0
asS'2hen_a'
p164
(lp165
I9
aI0
aI8
asS'3kl8_a'
p166
(lp167
I9
aI0
aI8
asS'3kl8_c'
p168
(lp169
I9
aI0
aI8
asS'3kl8_e'
p170
(lp171
I9
aI0
aI8
asS'4daw_a'
p172
(lp173
I0
aI8
aI8
asS'3mpa_a'
p174
(lp175
I9
aI8
aI0
asS'3kl8_i'
p176
(lp177
I9
aI0
aI8
asS'4lv5_a'
p178
(lp179
I-1
aI0
aI8
asS'4i93_a'
p180
(lp181
I9
aI8
aI0
asS'3o0g_b'
p182
(lp183
I9
aI8
aI0
asS'4fvp_a'
p184
(lp185
I9
aI0
aI8
asS'3mpm_a'
p186
(lp187
I9
aI0
aI8
asS'1zxe_a'
p188
(lp189
I9
aI0
aI8
asS'4rix_c'
p190
(lp191
I9
aI0
aI8
asS'2jii_a'
p192
(lp193
I9
aI0
aI0
asS'2jii_b'
p194
(lp195
I9
aI0
aI0
asS'4cyi_e'
p196
(lp197
I0
aI0
aI0
asS'3i6w_f'
p198
(lp199
I0
aI8
aI8
asS'3i6w_g'
p200
(lp201
I0
aI8
aI8
asS'3i6w_d'
p202
(lp203
I0
aI8
aI8
asS'3i6w_e'
p204
(lp205
I0
aI8
aI8
asS'3i6w_b'
p206
(lp207
I0
aI8
aI8
asS'3i6w_c'
p208
(lp209
I0
aI8
aI8
asS'4fzf_b'
p210
(lp211
I9
aI8
aI0
asS'4lqq_d'
p212
(lp213
I5
aI0
aI5
asS'4gih_a'
p214
(lp215
I9
aI0
aI8
asS'4lqq_a'
p216
(lp217
I9
aI0
aI8
asS'4p90_b'
p218
(lp219
I9
aI0
aI8
asS'3i6w_h'
p220
(lp221
I0
aI8
aI8
asS'4q8j_h'
p222
(lp223
I5
aI0
aI0
asS'2bdw_a'
p224
(lp225
I9
aI0
aI8
asS'2bdw_b'
p226
(lp227
I9
aI0
aI8
asS'4q8j_k'
p228
(lp229
I5
aI0
aI0
asS'4q8j_l'
p230
(lp231
I5
aI0
aI0
asS'1yhw_a'
p232
(lp233
I0
aI8
aI8
asS'4l00_a'
p234
(lp235
I9
aI0
aI8
asS'4q8j_b'
p236
(lp237
I9
aI0
aI0
asS'4q8j_c'
p238
(lp239
I9
aI0
aI0
asS'4q8j_e'
p240
(lp241
I9
aI0
aI0
asS'4q8j_f'
p242
(lp243
I9
aI0
aI0
asS'3dzo_a'
p244
(lp245
I5
aI0
aI0
asS'3kex_b'
p246
(lp247
I9
aI0
aI8
asS'4fvr_a'
p248
(lp249
I9
aI0
aI8
asS'3i6u_a'
p250
(lp251
I0
aI8
aI8
asS'3i6u_b'
p252
(lp253
I0
aI8
aI8
asS'4j7b_a'
p254
(lp255
I9
aI0
aI8
asS'4im2_a'
p256
(lp257
I9
aI0
aI8
asS'3q5z_a'
p258
(lp259
I9
aI0
aI8
asS'4i94_a'
p260
(lp261
I9
aI8
aI0
asS'3kex_a'
p262
(lp263
I9
aI0
aI8
asS'4nzw_b'
p264
(lp265
I9
aI8
aI0
asS'1gol_a'
p266
(lp267
I0
aI8
aI8
asS'4q2a_a'
p268
(lp269
I0
aI8
aI8
asS'3o8p_a'
p270
(lp271
I9
aI8
aI0
asS'4k2r_a'
p272
(lp273
I9
aI0
aI8
asS'3i6w_a'
p274
(lp275
I0
aI8
aI8
asS'3q53_a'
p276
(lp277
I0
aI8
aI8
asS'4oli_a'
p278
(lp279
I9
aI0
aI8
asS'4i94_b'
p280
(lp281
I9
aI8
aI0
asS'1opk_a'
p282
(lp283
I9
aI0
aI8
asS'4eut_a'
p284
(lp285
I9
aI0
aI8
asS'1opl_b'
p286
(lp287
I9
aI0
aI8
asS'1opl_a'
p288
(lp289
I9
aI0
aI8
asS'4eut_b'
p290
(lp291
I9
aI0
aI8
asS'4bwx_a'
p292
(lp293
I0
aI0
aI-1
asS'4bwx_b'
p294
(lp295
I0
aI0
aI-1
asS'4rix_a'
p296
(lp297
I9
aI0
aI8
asS'4lv8_a'
p298
(lp299
I-1
aI0
aI8
asS'1p14_a'
p300
(lp301
I9
aI0
aI8
asS'4x7j_a'
p302
(lp303
I-1
aI0
aI8
asS'3nz0_a'
p304
(lp305
I9
aI0
aI8
asS'4o0t_a'
p306
(lp307
I9
aI0
aI8
asS'4o0t_b'
p308
(lp309
I9
aI0
aI8
asS'3p86_a'
p310
(lp311
I9
aI0
aI8
asS'3p86_b'
p312
(lp313
I9
aI0
aI8
asS'2ozo_a'
p314
(lp315
I9
aI0
aI8
asS'4q8j_i'
p316
(lp317
I9
aI0
aI0
asS'1f3m_c'
p318
(lp319
I0
aI8
aI8
asS'4gj3_a'
p320
(lp321
I9
aI0
aI8
asS'2wqb_a'
p322
(lp323
I9
aI0
aI8
asS'4gii_a'
p324
(lp325
I9
aI0
aI8
asS'4jnw_a'
p326
(lp327
I9
aI8
aI0
asS'4jnw_b'
p328
(lp329
I9
aI8
aI0
asS'4bbf_a'
p330
(lp331
I9
aI0
aI8
asS'4u9a_a'
p332
(lp333
I9
aI0
aI8
asS'4u9a_b'
p334
(lp335
I9
aI0
aI8
asS'4bbf_b'
p336
(lp337
I9
aI0
aI8
asS'4bbf_d'
p338
(lp339
I9
aI0
aI8
asS'4x7l_a'
p340
(lp341
I-1
aI0
aI8
asS'4l01_b'
p342
(lp343
I9
aI0
aI8
asS'4l01_a'
p344
(lp345
I9
aI0
aI8
asS'1unh_b'
p346
(lp347
I9
aI8
aI0
asS'1unh_a'
p348
(lp349
I9
aI8
aI0
asS'4m68_a'
p350
(lp351
I9
aI0
aI0
asS'1zxe_f'
p352
(lp353
I-1
aI0
aI8
asS'1zxe_e'
p354
(lp355
I9
aI0
aI8
asS'1zxe_d'
p356
(lp357
I9
aI0
aI8
asS'1zxe_c'
p358
(lp359
I9
aI0
aI8
asS'1zxe_b'
p360
(lp361
I-1
aI0
aI8
asS'1ung_b'
p362
(lp363
I9
aI8
aI0
asS'4im3_a'
p364
(lp365
I9
aI0
aI8
asS'3kk9_a'
p366
(lp367
I9
aI0
aI8
asS'4p90_a'
p368
(lp369
I9
aI0
aI8
asS'4j7b_d'
p370
(lp371
I9
aI0
aI8
asS'4fvq_a'
p372
(lp373
I9
aI0
aI8
asS'3c0h_a'
p374
(lp375
I9
aI8
aI0
asS'4riw_c'
p376
(lp377
I9
aI0
aI8
asS'3c0h_b'
p378
(lp379
I9
aI8
aI0
asS'4u97_b'
p380
(lp381
I9
aI0
aI8
asS'4u97_a'
p382
(lp383
I9
aI0
aI8
asS'4c3f_a'
p384
(lp385
I9
aI0
aI8
asS'3q52_a'
p386
(lp387
I0
aI8
aI8
asS'1unl_a'
p388
(lp389
I9
aI8
aI0
asS'4czy_b'
p390
(lp391
I0
aI0
aI-1
asS'4e1z_a'
p392
(lp393
I9
aI0
aI8
asS'2w1z_b'
p394
(lp395
I-1
aI8
aI0
asS'4im0_a'
p396
(lp397
I9
aI0
aI8
asS'4gfo_a'
p398
(lp399
I9
aI0
aI8
asS'2wtk_c'
p400
(lp401
I9
aI8
aI0
asS'2wtk_b'
p402
(lp403
I0
aI0
aI0
asS'3c0g_b'
p404
(lp405
I9
aI8
aI0
asS'3fpq_b'
p406
(lp407
I0
aI8
aI8
asS'1unl_b'
p408
(lp409
I9
aI8
aI0
asS'2wtk_f'
p410
(lp411
I9
aI8
aI0
asS'4lg4_b'
p412
(lp413
I22
aI0
aI12
asS'4lg4_c'
p414
(lp415
I22
aI0
aI12
asS'4lg4_a'
p416
(lp417
I22
aI0
aI12
asS'4lg4_f'
p418
(lp419
I22
aI0
aI12
asS'4lg4_d'
p420
(lp421
I22
aI0
aI12
asS'4lg4_e'
p422
(lp423
I22
aI0
aI12
asS'3q4z_a'
p424
(lp425
I0
aI0
aI8
asS'2wtk_e'
p426
(lp427
I0
aI0
aI0
asS'4bbe_d'
p428
(lp429
I9
aI0
aI8
asS'3q4z_b'
p430
(lp431
I0
aI0
aI8
asS'4bbe_b'
p432
(lp433
I9
aI0
aI8
asS'4bbe_c'
p434
(lp435
I9
aI0
aI8
asS'1zmv_a'
p436
(lp437
I0
aI8
aI-1
asS'4bbe_a'
p438
(lp439
I9
aI0
aI8
asS'4cyi_f'
p440
(lp441
I0
aI0
aI0
asS'4cyi_g'
p442
(lp443
I0
aI0
aI0
asS'4qps_c'
p444
(lp445
I9
aI0
aI16
asS'4lgd_a'
p446
(lp447
I22
aI0
aI12
asS'4cyi_b'
p448
(lp449
I0
aI0
aI0
asS'4cyi_c'
p450
(lp451
I0
aI0
aI0
asS'4lgd_d'
p452
(lp453
I22
aI0
aI12
asS'2hen_c'
p454
(lp455
I9
aI0
aI8
asS'3c0g_a'
p456
(lp457
I9
aI8
aI0
asS'4cyi_h'
p458
(lp459
I0
aI0
aI0
asS'4qps_a'
p460
(lp461
I9
aI0
aI8
asS'1ung_a'
p462
(lp463
I9
aI8
aI0
asS'4gj2_a'
p464
(lp465
I9
aI0
aI8
asS'4x7o_a'
p466
(lp467
I-1
aI0
aI8
asS'4pwn_a'
p468
(lp469
I0
aI8
aI8
asS'1f3m_d'
p470
(lp471
I0
aI8
aI8
asS'3zut_b'
p472
(lp473
I9
aI8
aI0
asS'3zut_a'
p474
(lp475
I9
aI8
aI0
asS'3zuu_b'
p476
(lp477
I9
aI8
aI0
asS'4m67_a'
p478
(lp479
I9
aI0
aI0
asS'4l68_a'
p480
(lp481
I9
aI0
aI8
asS'4l68_b'
p482
(lp483
I9
aI0
aI8
asS'4riw_a'
p484
(lp485
I9
aI0
aI8
asS'4bwp_a'
p486
(lp487
I0
aI0
aI-1
asS'4bwp_b'
p488
(lp489
I0
aI0
aI-1
asS'2xne_a'
p490
(lp491
I9
aI8
aI0
asS'4e20_a'
p492
(lp493
I9
aI0
aI8
asS'4lqp_a'
p494
(lp495
I9
aI0
aI8
asS'3fpq_a'
p496
(lp497
I0
aI8
aI8
asS'4riy_c'
p498
(lp499
I9
aI0
aI8
asS'3zuu_a'
p500
(lp501
I9
aI8
aI0
asS'3c0i_a'
p502
(lp503
I9
aI8
aI0
asS'2wzj_f'
p504
(lp505
I0
aI8
aI8
asS'2xkc_a'
p506
(lp507
I9
aI0
aI8
asS'4pdp_b'
p508
(lp509
I9
aI8
aI0
asS'4riy_a'
p510
(lp511
I9
aI0
aI8
asS'3kl8_g'
p512
(lp513
I9
aI0
aI8
asa.